Certificate:
    Data:
        Version: 3 (0x2)
        Serial Number: 16 (0x10)
        Signature Algorithm: sha256WithRSAEncryption
        Issuer: C=CN, ST=Hu-Bei, L=Wu-Han, O=wjh, OU=wjh, CN=wjh/emailAddress=1272589536@qq.com
        Validity
            Not Before: Sep 19 08:53:04 2022 GMT
            Not After : Sep 19 08:53:04 2023 GMT
        Subject: C=CN, ST=Hu-Bei, O=wjh, OU=wjh, CN=wjh/emailAddress=1272589536@qq.com
        Subject Public Key Info:
            Public Key Algorithm: rsaEncryption
                RSA Public-Key: (2048 bit)
                Modulus:
                    00:c5:43:18:de:c6:25:10:55:f3:f1:7e:1a:7b:28:
                    5b:01:d4:4e:bb:8a:5c:41:c8:fb:bc:bb:fa:40:2a:
                    c9:0d:37:c0:f7:36:95:60:ca:8e:96:f9:74:e0:ed:
                    7b:6c:44:fe:1b:50:b2:6d:9a:ac:d3:eb:b6:4b:32:
                    e2:c9:ec:38:99:f6:44:77:51:00:0a:57:8b:14:83:
                    8f:a7:41:d7:f7:bf:5e:34:16:c3:34:d0:48:de:83:
                    25:39:4f:ed:82:e0:b4:3a:f3:33:c9:42:00:48:99:
                    81:4b:39:b6:70:92:d8:a6:c2:7a:9d:80:19:16:d4:
                    3c:e9:c3:a1:b1:d0:b6:4b:6d:61:0c:59:2b:38:0b:
                    53:74:4c:95:7b:c1:8b:31:a3:8f:ef:04:47:37:ef:
                    04:0f:2a:b5:d4:a9:a8:61:ed:0c:8f:ff:6c:94:4f:
                    1c:50:ad:48:6b:46:b4:d6:ef:45:96:f9:53:de:e7:
                    12:0e:45:b4:42:ef:01:53:7f:cb:ba:20:0b:fe:ab:
                    a7:63:3a:a6:f9:da:dc:22:3c:cb:6a:96:91:ea:d2:
                    0a:1d:0b:15:be:bb:2d:02:77:f1:01:c4:f0:c7:3c:
                    2a:46:20:97:0d:4c:79:b8:6b:ce:84:c1:0f:c0:f2:
                    b7:da:9e:63:1b:e6:b3:bf:fa:d2:70:75:b2:be:c6:
                    ee:21
                Exponent: 65537 (0x10001)
        X509v3 extensions:
            X509v3 Basic Constraints:
                CA:FALSE
            Netscape Comment:
                OpenSSL Generated Certificate
            X509v3 Subject Key Identifier:
                7D:8E:E3:51:DF:6A:37:50:E2:EB:27:AD:4E:1B:C3:7B:36:C1:7A:4F
            X509v3 Authority Key Identifier:
                keyid:88:25:53:10:7F:E7:B2:74:60:CC:69:F3:67:3A:7E:B4:C0:32:1F:49

    Signature Algorithm: sha256WithRSAEncryption
         85:7b:bc:b3:5a:26:9a:ac:24:bd:7b:fe:d4:4f:fe:a4:d3:ce:
         78:04:51:70:36:0a:1d:e6:6c:b7:33:96:33:ee:5e:9b:d2:60:
         e0:37:5c:ff:67:f9:b4:83:11:36:56:99:43:8a:fd:04:d9:80:
         7a:db:58:37:a9:9c:9d:99:09:e7:ac:7c:52:43:44:ee:e0:4b:
         cc:6a:70:a1:38:f4:43:51:11:e2:65:83:87:93:45:e3:c0:04:
         d8:66:55:99:fe:43:58:1c:5e:4c:d4:f0:c4:89:7a:d0:72:a3:
         15:97:6c:ae:ee:95:84:3a:5d:e5:98:9b:cb:5f:a2:25:28:65:
         ba:36:ec:fa:c2:32:f4:ab:cd:66:f5:52:0b:08:0d:30:5e:0d:
         54:3d:25:ea:d8:2d:d9:4a:eb:d7:67:e2:31:31:d9:b9:e3:a9:
         6d:0a:4f:b2:c4:95:02:5e:2d:00:92:6b:8b:af:c9:88:ea:cc:
         13:7f:3f:77:f5:70:8d:df:22:a2:4e:90:ce:78:4a:ed:dd:22:
         ff:87:c3:ce:68:7f:80:3f:4e:63:f4:26:1e:ab:71:96:ee:5e:
         da:5a:54:9c:4d:d0:50:28:81:07:a2:2f:37:bd:5c:93:2a:64:
         42:d0:29:29:04:44:1c:0a:7e:05:08:ac:6b:11:a5:72:07:f9:
         34:86:5e:f6
-----BEGIN CERTIFICATE-----
MIID2zCCAsOgAwIBAgIBEDANBgkqhkiG9w0BAQsFADB7MQswCQYDVQQGEwJDTjEP
MA0GA1UECAwGSHUtQmVpMQ8wDQYDVQQHDAZXdS1IYW4xDDAKBgNVBAoMA3dqaDEM
MAoGA1UECwwDd2poMQwwCgYDVQQDDAN3amgxIDAeBgkqhkiG9w0BCQEWETEyNzI1
ODk1MzZAcXEuY29tMB4XDTIyMDkxOTA4NTMwNFoXDTIzMDkxOTA4NTMwNFowajEL
MAkGA1UEBhMCQ04xDzANBgNVBAgMBkh1LUJlaTEMMAoGA1UECgwDd2poMQwwCgYD
VQQLDAN3amgxDDAKBgNVBAMMA3dqaDEgMB4GCSqGSIb3DQEJARYRMTI3MjU4OTUz
NkBxcS5jb20wggEiMA0GCSqGSIb3DQEBAQUAA4IBDwAwggEKAoIBAQDFQxjexiUQ
VfPxfhp7KFsB1E67ilxByPu8u/pAKskNN8D3NpVgyo6W+XTg7XtsRP4bULJtmqzT
67ZLMuLJ7DiZ9kR3UQAKV4sUg4+nQdf3v140FsM00EjegyU5T+2C4LQ68zPJQgBI
mYFLObZwktimwnqdgBkW1Dzpw6Gx0LZLbWEMWSs4C1N0TJV7wYsxo4/vBEc37wQP
KrXUqahh7QyP/2yUTxxQrUhrRrTW70WW+VPe5xIORbRC7wFTf8u6IAv+q6djOqb5
2twiPMtqlpHq0godCxW+uy0Cd/EBxPDHPCpGIJcNTHm4a86EwQ/A8rfanmMb5rO/
+tJwdbK+xu4hAgMBAAGjezB5MAkGA1UdEwQCMAAwLAYJYIZIAYb4QgENBB8WHU9w
ZW5TU0wgR2VuZXJhdGVkIENlcnRpZmljYXRlMB0GA1UdDgQWBBR9juNR32o3UOLr
J61OG8N7NsF6TzAfBgNVHSMEGDAWgBSIJVMQf+eydGDMafNnOn60wDIfSTANBgkq
hkiG9w0BAQsFAAOCAQEAhXu8s1ommqwkvXv+1E/+pNPOeARRcDYKHeZstzOWM+5e
m9Jg4Ddc/2f5tIMRNlaZQ4r9BNmAettYN6mcnZkJ56x8UkNE7uBLzGpwoTj0Q1ER
4mWDh5NF48AE2GZVmf5DWBxeTNTwxIl60HKjFZdsru6VhDpd5Ziby1+iJShlujbs
+sIy9KvNZvVSCwgNMF4NVD0l6tgt2Urr12fiMTHZueOpbQpPssSVAl4tAJJri6/J
iOrME38/d/Vwjd8iok6QznhK7d0i/4fDzmh/gD9OY/QmHqtxlu5e2lpUnE3QUCiB
B6IvN71ckypkQtApKQREHAp+BQisaxGlcgf5NIZe9g==
-----END CERTIFICATE-----
